target datalayout = "e-m:e-p270:32:32-p271:32:32-p272:64:64-i64:64-i128:128-f80:128-n8:16:32:64-S128"
target triple = "x86_64-pc-linux-gnu"

%struct._reo_man = type { i32, i32, i32, i32, i32, i32, ptr, ptr, i32, ptr, i32, i32, ptr, ptr, ptr, ptr, i32, i32, i32, i32, i32, i32, double, double, double, ptr, ptr, ptr, ptr, i32, ptr, i32, i32, ptr, i32, i32, i32, ptr, i32, i32, ptr, ptr, i32, i32, i32, i32, i32, i32, i32 }
%struct._reo_plane = type { i32, i32, i32, double, double, double, double, ptr }

@.str.3 = private unnamed_addr constant [27 x i8] c"Level = %2d. Width = %3d.\0A\00", align 1
@.str.4 = private unnamed_addr constant [8 x i8] c"WIDTH: \00", align 1
@.str.5 = private unnamed_addr constant [17 x i8] c"Maximum = %5d.  \00", align 1
@.str.6 = private unnamed_addr constant [15 x i8] c"Total = %7d.  \00", align 1
@.str.7 = private unnamed_addr constant [18 x i8] c"Average = %6.2f.\0A\00", align 1

; Function Attrs: nounwind uwtable
define void @reoProfileWidthPrint(ptr noundef %0) #0 {
  %2 = alloca ptr, align 8
  %3 = alloca i32, align 4
  %4 = alloca i32, align 4
  %5 = alloca i32, align 4
  store ptr %0, ptr %2, align 8, !tbaa !3
  call void @llvm.lifetime.start.p0(i64 4, ptr %3) #6
  call void @llvm.lifetime.start.p0(i64 4, ptr %4) #6
  call void @llvm.lifetime.start.p0(i64 4, ptr %5) #6
  store i32 0, ptr %3, align 4, !tbaa !8
  store i32 0, ptr %4, align 4, !tbaa !8
  store i32 0, ptr %5, align 4, !tbaa !8
  br label %6

6:                                                ; preds = %53, %1
  %7 = load i32, ptr %5, align 4, !tbaa !8
  %8 = load ptr, ptr %2, align 8, !tbaa !3
  %9 = getelementptr inbounds nuw %struct._reo_man, ptr %8, i32 0, i32 11
  %10 = load i32, ptr %9, align 4, !tbaa !10
  %11 = icmp sle i32 %7, %10
  br i1 %11, label %12, label %56

12:                                               ; preds = %6
  %13 = load i32, ptr %5, align 4, !tbaa !8
  %14 = load ptr, ptr %2, align 8, !tbaa !3
  %15 = getelementptr inbounds nuw %struct._reo_man, ptr %14, i32 0, i32 28
  %16 = load ptr, ptr %15, align 8, !tbaa !21
  %17 = load i32, ptr %5, align 4, !tbaa !8
  %18 = sext i32 %17 to i64
  %19 = getelementptr inbounds %struct._reo_plane, ptr %16, i64 %18
  %20 = getelementptr inbounds nuw %struct._reo_plane, ptr %19, i32 0, i32 2
  %21 = load i32, ptr %20, align 8, !tbaa !58
  %22 = call i32 (ptr, ...) @printf(ptr noundef @.str.3, i32 noundef %13, i32 noundef %21)
  %23 = load i32, ptr %3, align 4, !tbaa !8
  %24 = load ptr, ptr %2, align 8, !tbaa !3
  %25 = getelementptr inbounds nuw %struct._reo_man, ptr %24, i32 0, i32 28
  %26 = load ptr, ptr %25, align 8, !tbaa !21
  %27 = load i32, ptr %5, align 4, !tbaa !8
  %28 = sext i32 %27 to i64
  %29 = getelementptr inbounds %struct._reo_plane, ptr %26, i64 %28
  %30 = getelementptr inbounds nuw %struct._reo_plane, ptr %29, i32 0, i32 2
  %31 = load i32, ptr %30, align 8, !tbaa !58
  %32 = icmp slt i32 %23, %31
  br i1 %32, label %33, label %42

33:                                               ; preds = %12
  %34 = load ptr, ptr %2, align 8, !tbaa !3
  %35 = getelementptr inbounds nuw %struct._reo_man, ptr %34, i32 0, i32 28
  %36 = load ptr, ptr %35, align 8, !tbaa !21
  %37 = load i32, ptr %5, align 4, !tbaa !8
  %38 = sext i32 %37 to i64
  %39 = getelementptr inbounds %struct._reo_plane, ptr %36, i64 %38
  %40 = getelementptr inbounds nuw %struct._reo_plane, ptr %39, i32 0, i32 2
  %41 = load i32, ptr %40, align 8, !tbaa !58
  store i32 %41, ptr %3, align 4, !tbaa !8
  br label %42

42:                                               ; preds = %33, %12
  %43 = load ptr, ptr %2, align 8, !tbaa !3
  %44 = getelementptr inbounds nuw %struct._reo_man, ptr %43, i32 0, i32 28
  %45 = load ptr, ptr %44, align 8, !tbaa !21
  %46 = load i32, ptr %5, align 4, !tbaa !8
  %47 = sext i32 %46 to i64
  %48 = getelementptr inbounds %struct._reo_plane, ptr %45, i64 %47
  %49 = getelementptr inbounds nuw %struct._reo_plane, ptr %48, i32 0, i32 2
  %50 = load i32, ptr %49, align 8, !tbaa !58
  %51 = load i32, ptr %4, align 4, !tbaa !8
  %52 = add nsw i32 %51, %50
  store i32 %52, ptr %4, align 4, !tbaa !8
  br label %53

53:                                               ; preds = %42
  %54 = load i32, ptr %5, align 4, !tbaa !8
  %55 = add nsw i32 %54, 1
  store i32 %55, ptr %5, align 4, !tbaa !8
  br label %6, !llvm.loop !76

56:                                               ; preds = %6
  %57 = call i32 (ptr, ...) @printf(ptr noundef @.str.4)
  %58 = load i32, ptr %3, align 4, !tbaa !8
  %59 = call i32 (ptr, ...) @printf(ptr noundef @.str.5, i32 noundef %58)
  %60 = load ptr, ptr %2, align 8, !tbaa !3
  %61 = getelementptr inbounds nuw %struct._reo_man, ptr %60, i32 0, i32 19
  %62 = load i32, ptr %61, align 4, !tbaa !57
  %63 = call i32 (ptr, ...) @printf(ptr noundef @.str.6, i32 noundef %62)
  %64 = load i32, ptr %4, align 4, !tbaa !8
  %65 = sitofp i32 %64 to float
  %66 = load ptr, ptr %2, align 8, !tbaa !3
  %67 = getelementptr inbounds nuw %struct._reo_man, ptr %66, i32 0, i32 11
  %68 = load i32, ptr %67, align 4, !tbaa !10
  %69 = sitofp i32 %68 to float
  %70 = fdiv float %65, %69
  %71 = fpext float %70 to double
  %72 = call i32 (ptr, ...) @printf(ptr noundef @.str.7, double noundef %71)
  call void @llvm.lifetime.end.p0(i64 4, ptr %5) #6
  call void @llvm.lifetime.end.p0(i64 4, ptr %4) #6
  call void @llvm.lifetime.end.p0(i64 4, ptr %3) #6
  ret void
}