; Function Attrs: nofree nounwind uwtable
define void @reoProfileWidthPrint(ptr noundef readonly captures(none) %0) local_unnamed_addr #5 {
  %2 = getelementptr inbounds nuw i8, ptr %0, i64 60
  %3 = load i32, ptr %2, align 4, !tbaa !3
  %.not20 = icmp slt i32 %3, 0
  br i1 %.not20, label %._crit_edge, label %.lr.ph

.lr.ph:                                           ; preds = %1
  %4 = getelementptr inbounds nuw i8, ptr %0, i64 168
  %.pre = load ptr, ptr %4, align 8, !tbaa !18
  br label %5

5:                                                ; preds = %.lr.ph, %5
  %6 = phi ptr [ %.pre, %.lr.ph ], [ %11, %5 ]
  %indvars.iv = phi i64 [ 0, %.lr.ph ], [ %indvars.iv.next, %5 ]
  %.01722 = phi i32 [ 0, %.lr.ph ], [ %14, %5 ]
  %.01821 = phi i32 [ 0, %.lr.ph ], [ %spec.select, %5 ]
  %7 = getelementptr inbounds nuw %struct._reo_plane, ptr %6, i64 %indvars.iv, i32 2
  %8 = load i32, ptr %7, align 8, !tbaa !51
  %9 = trunc nuw nsw i64 %indvars.iv to i32
  %10 = tail call i32 (ptr, ...) @printf(ptr noundef nonnull dereferenceable(1) @.str.3, i32 noundef %9, i32 noundef %8)
  %11 = load ptr, ptr %4, align 8, !tbaa !18
  %12 = getelementptr inbounds nuw %struct._reo_plane, ptr %11, i64 %indvars.iv, i32 2
  %13 = load i32, ptr %12, align 8, !tbaa !51
  %spec.select = tail call i32 @llvm.smax.i32(i32 %.01821, i32 %13)
  %14 = add nsw i32 %13, %.01722
  %indvars.iv.next = add nuw nsw i64 %indvars.iv, 1
  %15 = load i32, ptr %2, align 4, !tbaa !3
  %16 = sext i32 %15 to i64
  %.not.not = icmp slt i64 %indvars.iv, %16
  br i1 %.not.not, label %5, label %._crit_edge.loopexit, !llvm.loop !66

._crit_edge.loopexit:                             ; preds = %5
  %17 = sitofp i32 %14 to float
  br label %._crit_edge

._crit_edge:                                      ; preds = %._crit_edge.loopexit, %1
  %.018.lcssa = phi i32 [ 0, %1 ], [ %spec.select, %._crit_edge.loopexit ]
  %.017.lcssa = phi float [ 0.000000e+00, %1 ], [ %17, %._crit_edge.loopexit ]
  %18 = tail call i32 (ptr, ...) @printf(ptr noundef nonnull dereferenceable(1) @.str.4)
  %19 = tail call i32 (ptr, ...) @printf(ptr noundef nonnull dereferenceable(1) @.str.5, i32 noundef %.018.lcssa)
  %20 = getelementptr inbounds nuw i8, ptr %0, i64 108
  %21 = load i32, ptr %20, align 4, !tbaa !48
  %22 = tail call i32 (ptr, ...) @printf(ptr noundef nonnull dereferenceable(1) @.str.6, i32 noundef %21)
  %23 = load i32, ptr %2, align 4, !tbaa !3
  %24 = sitofp i32 %23 to float
  %25 = fdiv float %.017.lcssa, %24
  %26 = fpext float %25 to double
  %27 = tail call i32 (ptr, ...) @printf(ptr noundef nonnull dereferenceable(1) @.str.7, double noundef %26)
  ret void
}